target datalayout = "e-m:e-p270:32:32-p271:32:32-p272:64:64-i64:64-i128:128-f80:128-n8:16:32:64-S128"
target triple = "x86_64-pc-linux-gnu"

%"class.std::__cxx11::basic_string" = type { %"struct.std::__cxx11::basic_string<char>::_Alloc_hider", i64, %union.anon }
%"struct.std::__cxx11::basic_string<char>::_Alloc_hider" = type { ptr }
%union.anon = type { i64, [8 x i8] }
%"class.std::allocator" = type { i8 }
%"class.std::filesystem::__cxx11::path" = type { %"class.std::__cxx11::basic_string", %"struct.std::filesystem::__cxx11::path::_List" }
%"struct.std::filesystem::__cxx11::path::_List" = type { %"class.std::unique_ptr" }
%"class.std::unique_ptr" = type { %"struct.std::__uniq_ptr_data" }
%"struct.std::__uniq_ptr_data" = type { %"class.std::__uniq_ptr_impl" }
%"class.std::__uniq_ptr_impl" = type { %"class.std::tuple" }
%"class.std::tuple" = type { %"struct.std::_Tuple_impl" }
%"struct.std::_Tuple_impl" = type { %"struct.std::_Head_base.1" }
%"struct.std::_Head_base.1" = type { ptr }
%struct.gmx_inputrec_strings = type { [4096 x i8], [4096 x i8], [4096 x i8], [4096 x i8], [4096 x i8], [4096 x i8], [4096 x i8], [4096 x i8], [4096 x i8], [4096 x i8], [4096 x i8], [4096 x i8], [4096 x i8], [4096 x i8], [4096 x i8], [4096 x i8], [4096 x i8], [4096 x i8], [4096 x i8], [4096 x i8], [4096 x i8], %"struct.gmx::EnumerationArray.2", [4096 x i8], %"class.std::vector", %"class.std::vector", [4096 x i8], [4096 x i8], [4096 x i8], [4096 x i8] }
%"struct.gmx::EnumerationArray.2" = type { [7 x %"class.std::__cxx11::basic_string"] }
%"class.std::vector" = type { %"struct.std::_Vector_base" }
%"struct.std::_Vector_base" = type { %"struct.std::_Vector_base<std::__cxx11::basic_string<char>, std::allocator<std::__cxx11::basic_string<char>>>::_Vector_impl" }
%"struct.std::_Vector_base<std::__cxx11::basic_string<char>, std::allocator<std::__cxx11::basic_string<char>>>::_Vector_impl" = type { %"struct.std::_Vector_base<std::__cxx11::basic_string<char>, std::allocator<std::__cxx11::basic_string<char>>>::_Vector_impl_data" }
%"struct.std::_Vector_base<std::__cxx11::basic_string<char>, std::allocator<std::__cxx11::basic_string<char>>>::_Vector_impl_data" = type { ptr, ptr, ptr }

@_ZL15inputrecStrings = internal global ptr null, align 8
@.str.8 = private unnamed_addr constant [7 x i8] c"incons\00", align 1
@.str.9 = private unnamed_addr constant [138 x i8] c"Attempted to call init_inputrec_strings before calling done_inputrec_strings. Only one inputrec (i.e. .mdp file) can be parsed at a time.\00", align 1
@.str.10 = private unnamed_addr constant [130 x i8] c"generated/home/dtcxzyw/WorkSpace/Projects/compilers/llvm-opt-benchmark/bench/gromacs/gromacs/src/gromacs/gmxpreprocess/readir.cpp\00", align 1

; Function Attrs: mustprogress nounwind uwtable
define linkonce_odr void @_ZNSt15__new_allocatorINSt7__cxx1112basic_stringIcSt11char_traitsIcESaIcEEEEC2Ev(ptr noundef nonnull align 1 dereferenceable(1) %0) unnamed_addr #3 comdat align 2 {
  %2 = alloca ptr, align 8
  store ptr %0, ptr %2, align 8
  ret void
}

; Function Attrs: mustprogress nounwind uwtable
define linkonce_odr void @_ZNSt12_Vector_baseINSt7__cxx1112basic_stringIcSt11char_traitsIcESaIcEEESaIS5_EE17_Vector_impl_dataC2Ev(ptr noundef nonnull align 8 dereferenceable(24) %0) unnamed_addr #3 comdat align 2 {
  %2 = alloca ptr, align 8
  store ptr %0, ptr %2, align 8
  %3 = load ptr, ptr %2, align 8
  %4 = getelementptr inbounds %"struct.std::_Vector_base<std::__cxx11::basic_string<char>, std::allocator<std::__cxx11::basic_string<char>>>::_Vector_impl_data", ptr %3, i32 0, i32 0
  store ptr null, ptr %4, align 8
  %5 = getelementptr inbounds %"struct.std::_Vector_base<std::__cxx11::basic_string<char>, std::allocator<std::__cxx11::basic_string<char>>>::_Vector_impl_data", ptr %3, i32 0, i32 1
  store ptr null, ptr %5, align 8
  %6 = getelementptr inbounds %"struct.std::_Vector_base<std::__cxx11::basic_string<char>, std::allocator<std::__cxx11::basic_string<char>>>::_Vector_impl_data", ptr %3, i32 0, i32 2
  store ptr null, ptr %6, align 8
  ret void
}

; Function Attrs: mustprogress nounwind uwtable
define linkonce_odr void @_ZNSaINSt7__cxx1112basic_stringIcSt11char_traitsIcESaIcEEEEC2Ev(ptr noundef nonnull align 1 dereferenceable(1) %0) unnamed_addr #3 comdat align 2 {
  %2 = alloca ptr, align 8
  store ptr %0, ptr %2, align 8
  %3 = load ptr, ptr %2, align 8
  call void @_ZNSt15__new_allocatorINSt7__cxx1112basic_stringIcSt11char_traitsIcESaIcEEEEC2Ev(ptr noundef nonnull align 1 dereferenceable(1) %3) #4
  ret void
}

; Function Attrs: mustprogress nounwind uwtable
define linkonce_odr void @_ZNSt12_Vector_baseINSt7__cxx1112basic_stringIcSt11char_traitsIcESaIcEEESaIS5_EE12_Vector_implC2Ev(ptr noundef nonnull align 8 dereferenceable(24) %0) unnamed_addr #3 comdat align 2 {
  %2 = alloca ptr, align 8
  store ptr %0, ptr %2, align 8
  %3 = load ptr, ptr %2, align 8
  call void @_ZNSaINSt7__cxx1112basic_stringIcSt11char_traitsIcESaIcEEEEC2Ev(ptr noundef nonnull align 1 dereferenceable(1) %3) #4
  call void @_ZNSt12_Vector_baseINSt7__cxx1112basic_stringIcSt11char_traitsIcESaIcEEESaIS5_EE17_Vector_impl_dataC2Ev(ptr noundef nonnull align 8 dereferenceable(24) %3) #4
  ret void
}

; Function Attrs: mustprogress nounwind uwtable
define linkonce_odr void @_ZNSt12_Vector_baseINSt7__cxx1112basic_stringIcSt11char_traitsIcESaIcEEESaIS5_EEC2Ev(ptr noundef nonnull align 8 dereferenceable(24) %0) unnamed_addr #3 comdat align 2 {
  %2 = alloca ptr, align 8
  store ptr %0, ptr %2, align 8
  %3 = load ptr, ptr %2, align 8
  %4 = getelementptr inbounds %"struct.std::_Vector_base", ptr %3, i32 0, i32 0
  call void @_ZNSt12_Vector_baseINSt7__cxx1112basic_stringIcSt11char_traitsIcESaIcEEESaIS5_EE12_Vector_implC2Ev(ptr noundef nonnull align 8 dereferenceable(24) %4) #4
  ret void
}

; Function Attrs: mustprogress nounwind uwtable
define linkonce_odr void @_ZNSt6vectorINSt7__cxx1112basic_stringIcSt11char_traitsIcESaIcEEESaIS5_EEC2Ev(ptr noundef nonnull align 8 dereferenceable(24) %0) unnamed_addr #3 comdat align 2 {
  %2 = alloca ptr, align 8
  store ptr %0, ptr %2, align 8
  %3 = load ptr, ptr %2, align 8
  call void @_ZNSt12_Vector_baseINSt7__cxx1112basic_stringIcSt11char_traitsIcESaIcEEESaIS5_EEC2Ev(ptr noundef nonnull align 8 dereferenceable(24) %3) #4
  ret void
}

; Function Attrs: mustprogress nounwind uwtable
define linkonce_odr void @_ZN3gmx16EnumerationArrayI34FreeEnergyPerturbationCouplingTypeNSt7__cxx1112basic_stringIcSt11char_traitsIcESaIcEEELS1_7EEC2Ev(ptr noundef nonnull align 8 dereferenceable(224) %0) unnamed_addr #3 comdat align 2 {
  %2 = alloca ptr, align 8
  store ptr %0, ptr %2, align 8
  %3 = load ptr, ptr %2, align 8
  %4 = getelementptr inbounds %"struct.gmx::EnumerationArray.2", ptr %3, i32 0, i32 0
  %5 = getelementptr inbounds [7 x %"class.std::__cxx11::basic_string"], ptr %4, i32 0, i32 0
  %6 = getelementptr inbounds %"class.std::__cxx11::basic_string", ptr %5, i64 7
  br label %7

7:                                                ; preds = %7, %1
  %8 = phi ptr [ %5, %1 ], [ %9, %7 ]
  call void @_ZNSt7__cxx1112basic_stringIcSt11char_traitsIcESaIcEEC1Ev(ptr noundef nonnull align 8 dereferenceable(32) %8) #4
  %9 = getelementptr inbounds %"class.std::__cxx11::basic_string", ptr %8, i64 1
  %10 = icmp eq ptr %9, %6
  br i1 %10, label %11, label %7

11:                                               ; preds = %7
  ret void
}

; Function Attrs: mustprogress nounwind uwtable
define linkonce_odr void @_ZN20gmx_inputrec_stringsC2Ev(ptr noundef nonnull align 8 dereferenceable(106768) %0) unnamed_addr #3 comdat align 2 {
  %2 = alloca ptr, align 8
  store ptr %0, ptr %2, align 8
  %3 = load ptr, ptr %2, align 8
  %4 = getelementptr inbounds %struct.gmx_inputrec_strings, ptr %3, i32 0, i32 21
  call void @_ZN3gmx16EnumerationArrayI34FreeEnergyPerturbationCouplingTypeNSt7__cxx1112basic_stringIcSt11char_traitsIcESaIcEEELS1_7EEC2Ev(ptr noundef nonnull align 8 dereferenceable(224) %4) #4
  %5 = getelementptr inbounds %struct.gmx_inputrec_strings, ptr %3, i32 0, i32 23
  call void @_ZNSt6vectorINSt7__cxx1112basic_stringIcSt11char_traitsIcESaIcEEESaIS5_EEC2Ev(ptr noundef nonnull align 8 dereferenceable(24) %5) #4
  %6 = getelementptr inbounds %struct.gmx_inputrec_strings, ptr %3, i32 0, i32 24
  call void @_ZNSt6vectorINSt7__cxx1112basic_stringIcSt11char_traitsIcESaIcEEESaIS5_EEC2Ev(ptr noundef nonnull align 8 dereferenceable(24) %6) #4
  ret void
}

; Function Attrs: mustprogress uwtable
define void @_Z21init_inputrec_stringsv() #2 personality ptr @__gxx_personality_v0 {
  %1 = alloca %"class.std::__cxx11::basic_string", align 8
  %2 = alloca %"class.std::allocator", align 1
  %3 = alloca ptr, align 8
  %4 = alloca i32, align 4
  %5 = alloca %"class.std::filesystem::__cxx11::path", align 8
  %6 = load ptr, ptr @_ZL15inputrecStrings, align 8
  %7 = icmp ne ptr %6, null
  br i1 %7, label %8, label %26

8:                                                ; preds = %0
  call void @_ZNSaIcEC1Ev(ptr noundef nonnull align 1 dereferenceable(1) %2) #4
  invoke void @_ZNSt7__cxx1112basic_stringIcSt11char_traitsIcESaIcEEC2IS3_EEPKcRKS3_(ptr noundef nonnull align 8 dereferenceable(32) %1, ptr noundef @.str.9, ptr noundef nonnull align 1 dereferenceable(1) %2)
          to label %9 unwind label %12

9:                                                ; preds = %8
  invoke void @_ZNSt10filesystem7__cxx114pathC2IA130_cS1_EERKT_NS1_6formatE(ptr noundef nonnull align 8 dereferenceable(40) %5, ptr noundef nonnull align 1 dereferenceable(130) @.str.10, i8 noundef zeroext 2)
          to label %10 unwind label %16

10:                                               ; preds = %9
  invoke void @_Z18gmx_error_functionPKcRKNSt7__cxx1112basic_stringIcSt11char_traitsIcESaIcEEERKNSt10filesystem7__cxx114pathEi(ptr noundef @.str.8, ptr noundef nonnull align 8 dereferenceable(32) %1, ptr noundef nonnull align 8 dereferenceable(40) %5, i32 noundef 129) #17
          to label %11 unwind label %20

11:                                               ; preds = %10
  unreachable

12:                                               ; preds = %8
  %13 = landingpad { ptr, i32 }
          cleanup
  %14 = extractvalue { ptr, i32 } %13, 0
  store ptr %14, ptr %3, align 8
  %15 = extractvalue { ptr, i32 } %13, 1
  store i32 %15, ptr %4, align 4
  br label %25

16:                                               ; preds = %9
  %17 = landingpad { ptr, i32 }
          cleanup
  %18 = extractvalue { ptr, i32 } %17, 0
  store ptr %18, ptr %3, align 8
  %19 = extractvalue { ptr, i32 } %17, 1
  store i32 %19, ptr %4, align 4
  br label %24

20:                                               ; preds = %10
  %21 = landingpad { ptr, i32 }
          cleanup
  %22 = extractvalue { ptr, i32 } %21, 0
  store ptr %22, ptr %3, align 8
  %23 = extractvalue { ptr, i32 } %21, 1
  store i32 %23, ptr %4, align 4
  call void @_ZNSt10filesystem7__cxx114pathD2Ev(ptr noundef nonnull align 8 dereferenceable(40) %5) #4
  br label %24

24:                                               ; preds = %20, %16
  call void @_ZNSt7__cxx1112basic_stringIcSt11char_traitsIcESaIcEED1Ev(ptr noundef nonnull align 8 dereferenceable(32) %1) #4
  br label %25

25:                                               ; preds = %24, %12
  call void @_ZNSaIcED1Ev(ptr noundef nonnull align 1 dereferenceable(1) %2) #4
  br label %28

26:                                               ; preds = %0
  %27 = call noalias noundef nonnull ptr @_Znwm(i64 noundef 106768) #19
  call void @llvm.memset.p0.i64(ptr align 16 %27, i8 0, i64 106768, i1 false)
  call void @_ZN20gmx_inputrec_stringsC2Ev(ptr noundef nonnull align 8 dereferenceable(106768) %27) #4
  store ptr %27, ptr @_ZL15inputrecStrings, align 8
  ret void

28:                                               ; preds = %25
  %29 = load ptr, ptr %3, align 8
  %30 = load i32, ptr %4, align 4
  %31 = insertvalue { ptr, i32 } poison, ptr %29, 0
  %32 = insertvalue { ptr, i32 } %31, i32 %30, 1
  resume { ptr, i32 } %32
}