; Function Attrs: mustprogress uwtable
define void @_Z21init_inputrec_stringsv() local_unnamed_addr #1 personality ptr @__gxx_personality_v0 {
  %1 = alloca %"class.std::__cxx11::basic_string", align 8
  %2 = alloca %"class.std::allocator", align 1
  %3 = alloca %"class.std::filesystem::__cxx11::path", align 8
  %4 = load ptr, ptr @_ZL15inputrecStrings, align 8
  %.not = icmp eq ptr %4, null
  br i1 %.not, label %17, label %5

5:                                                ; preds = %0
  call void @_ZNSaIcEC1Ev(ptr noundef nonnull align 1 dereferenceable(1) %2) #24
  invoke void @_ZNSt7__cxx1112basic_stringIcSt11char_traitsIcESaIcEEC2IS3_EEPKcRKS3_(ptr noundef nonnull align 8 dereferenceable(32) %1, ptr noundef nonnull @.str.9, ptr noundef nonnull align 1 dereferenceable(1) %2)
          to label %6 unwind label %9

6:                                                ; preds = %5
  invoke void @_ZNSt10filesystem7__cxx114pathC2IA130_cS1_EERKT_NS1_6formatE(ptr noundef nonnull align 8 dereferenceable(40) %3, ptr noundef nonnull align 1 dereferenceable(130) @.str.10, i8 noundef zeroext 2)
          to label %7 unwind label %11

7:                                                ; preds = %6
  invoke void @_Z18gmx_error_functionPKcRKNSt7__cxx1112basic_stringIcSt11char_traitsIcESaIcEEERKNSt10filesystem7__cxx114pathEi(ptr noundef nonnull @.str.8, ptr noundef nonnull align 8 dereferenceable(32) %1, ptr noundef nonnull align 8 dereferenceable(40) %3, i32 noundef 129) #23
          to label %8 unwind label %13

8:                                                ; preds = %7
  unreachable

9:                                                ; preds = %5
  %10 = landingpad { ptr, i32 }
          cleanup
  br label %16

11:                                               ; preds = %6
  %12 = landingpad { ptr, i32 }
          cleanup
  br label %15

13:                                               ; preds = %7
  %14 = landingpad { ptr, i32 }
          cleanup
  call void @_ZNSt10filesystem7__cxx114pathD2Ev(ptr noundef nonnull align 8 dereferenceable(40) %3) #24
  br label %15

15:                                               ; preds = %13, %11
  %.pn = phi { ptr, i32 } [ %14, %13 ], [ %12, %11 ]
  call void @_ZNSt7__cxx1112basic_stringIcSt11char_traitsIcESaIcEED1Ev(ptr noundef nonnull align 8 dereferenceable(32) %1) #24
  br label %16

16:                                               ; preds = %15, %9
  %.pn.pn = phi { ptr, i32 } [ %.pn, %15 ], [ %10, %9 ]
  call void @_ZNSaIcED1Ev(ptr noundef nonnull align 1 dereferenceable(1) %2) #24
  resume { ptr, i32 } %.pn.pn

17:                                               ; preds = %0
  %18 = tail call noalias noundef nonnull dereferenceable(106768) ptr @_Znwm(i64 noundef 106768) #26
  tail call void @llvm.memset.p0.i64(ptr noundef nonnull align 16 dereferenceable(106768) %18, i8 0, i64 106768, i1 false)
  %19 = getelementptr inbounds i8, ptr %18, i64 86016
  br label %20

20:                                               ; preds = %20, %17
  %.idx.i.i = phi i64 [ 0, %17 ], [ %.add.i.i, %20 ]
  %.ptr.i.i = getelementptr inbounds i8, ptr %19, i64 %.idx.i.i
  tail call void @_ZNSt7__cxx1112basic_stringIcSt11char_traitsIcESaIcEEC1Ev(ptr noundef nonnull align 8 dereferenceable(32) %.ptr.i.i) #24
  %.add.i.i = add nuw nsw i64 %.idx.i.i, 32
  %21 = icmp eq i64 %.add.i.i, 224
  br i1 %21, label %_ZN20gmx_inputrec_stringsC2Ev.exit, label %20

_ZN20gmx_inputrec_stringsC2Ev.exit:               ; preds = %20
  %22 = getelementptr inbounds i8, ptr %18, i64 90336
  tail call void @llvm.memset.p0.i64(ptr noundef nonnull align 8 dereferenceable(48) %22, i8 0, i64 48, i1 false)
  store ptr %18, ptr @_ZL15inputrecStrings, align 8
  ret void
}